; ModuleID = 'source-C-CXX/48/402.cpp'
source_filename = "source-C-CXX/48/402.cpp"
target datalayout = "e-m:e-p270:32:32-p271:32:32-p272:64:64-i64:64-f80:128-n8:16:32:64-S128"
target triple = "x86_64-pc-linux-gnu"

%"class.std::ios_base::Init" = type { i8 }
%"class.std::basic_istream" = type { i32 (...)**, i64, %"class.std::basic_ios" }
%"class.std::basic_ios" = type { %"class.std::ios_base", %"class.std::basic_ostream"*, i8, i8, %"class.std::basic_streambuf"*, %"class.std::ctype"*, %"class.std::num_put"*, %"class.std::num_get"* }
%"class.std::ios_base" = type { i32 (...)**, i64, i64, i32, i32, i32, %"struct.std::ios_base::_Callback_list"*, %"struct.std::ios_base::_Words", [8 x %"struct.std::ios_base::_Words"], i32, %"struct.std::ios_base::_Words"*, %"class.std::locale" }
%"struct.std::ios_base::_Callback_list" = type { %"struct.std::ios_base::_Callback_list"*, void (i32, %"class.std::ios_base"*, i32)*, i32, i32 }
%"struct.std::ios_base::_Words" = type { i8*, i64 }
%"class.std::locale" = type { %"class.std::locale::_Impl"* }
%"class.std::locale::_Impl" = type { i32, %"class.std::locale::facet"**, i64, %"class.std::locale::facet"**, i8** }
%"class.std::locale::facet" = type <{ i32 (...)**, i32, [4 x i8] }>
%"class.std::basic_ostream" = type { i32 (...)**, %"class.std::basic_ios" }
%"class.std::basic_streambuf" = type { i32 (...)**, i8*, i8*, i8*, i8*, i8*, i8*, %"class.std::locale" }
%"class.std::ctype" = type <{ %"class.std::locale::facet.base", [4 x i8], %struct.__locale_struct*, i8, [7 x i8], i32*, i32*, i16*, i8, [256 x i8], [256 x i8], i8, [6 x i8] }>
%"class.std::locale::facet.base" = type <{ i32 (...)**, i32 }>
%struct.__locale_struct = type { [13 x %struct.__locale_data*], i16*, i32*, i32*, [13 x i8*] }
%struct.__locale_data = type opaque
%"class.std::num_put" = type { %"class.std::locale::facet.base", [4 x i8] }
%"class.std::num_get" = type { %"class.std::locale::facet.base", [4 x i8] }

@_ZStL8__ioinit = internal global %"class.std::ios_base::Init" zeroinitializer, align 1
@__dso_handle = external hidden global i8
@word = dso_local global [500 x i8] zeroinitializer, align 16
@len = dso_local local_unnamed_addr global i32 0, align 4
@_ZSt3cin = external global %"class.std::basic_istream", align 8
@_ZSt4cout = external global %"class.std::basic_ostream", align 8
@llvm.global_ctors = appending global [1 x { i32, void ()*, i8* }] [{ i32, void ()*, i8* } { i32 65535, void ()* @_GLOBAL__sub_I_402.cpp, i8* null }]

declare void @_ZNSt8ios_base4InitC1Ev(%"class.std::ios_base::Init"* nonnull align 1 dereferenceable(1)) unnamed_addr #0

; Function Attrs: nounwind
declare void @_ZNSt8ios_base4InitD1Ev(%"class.std::ios_base::Init"* nonnull align 1 dereferenceable(1)) unnamed_addr #1

; Function Attrs: nofree nounwind
declare i32 @__cxa_atexit(void (i8*)*, i8*, i8*) local_unnamed_addr #2

; Function Attrs: mustprogress norecurse sspstrong uwtable
define dso_local i32 @main() local_unnamed_addr #3 {
  %1 = load i8*, i8** bitcast (%"class.std::basic_istream"* @_ZSt3cin to i8**), align 8, !tbaa !5
  %2 = getelementptr i8, i8* %1, i64 -24
  %3 = bitcast i8* %2 to i64*
  %4 = load i64, i64* %3, align 8
  %5 = add nsw i64 %4, 240
  %6 = getelementptr inbounds i8, i8* bitcast (%"class.std::basic_istream"* @_ZSt3cin to i8*), i64 %5
  %7 = bitcast i8* %6 to %"class.std::ctype"**
  %8 = load %"class.std::ctype"*, %"class.std::ctype"** %7, align 8, !tbaa !8
  %9 = icmp eq %"class.std::ctype"* %8, null
  br i1 %9, label %10, label %11

10:                                               ; preds = %0
  tail call void @_ZSt16__throw_bad_castv() #9
  unreachable

11:                                               ; preds = %0
  %12 = getelementptr inbounds %"class.std::ctype", %"class.std::ctype"* %8, i64 0, i32 8
  %13 = load i8, i8* %12, align 8, !tbaa !13
  %14 = icmp eq i8 %13, 0
  br i1 %14, label %18, label %15

15:                                               ; preds = %11
  %16 = getelementptr inbounds %"class.std::ctype", %"class.std::ctype"* %8, i64 0, i32 9, i64 10
  %17 = load i8, i8* %16, align 1, !tbaa !15
  br label %24

18:                                               ; preds = %11
  tail call void @_ZNKSt5ctypeIcE13_M_widen_initEv(%"class.std::ctype"* nonnull align 8 dereferenceable(570) %8)
  %19 = bitcast %"class.std::ctype"* %8 to i8 (%"class.std::ctype"*, i8)***
  %20 = load i8 (%"class.std::ctype"*, i8)**, i8 (%"class.std::ctype"*, i8)*** %19, align 8, !tbaa !5
  %21 = getelementptr inbounds i8 (%"class.std::ctype"*, i8)*, i8 (%"class.std::ctype"*, i8)** %20, i64 6
  %22 = load i8 (%"class.std::ctype"*, i8)*, i8 (%"class.std::ctype"*, i8)** %21, align 8
  %23 = tail call signext i8 %22(%"class.std::ctype"* nonnull align 8 dereferenceable(570) %8, i8 signext 10)
  br label %24

24:                                               ; preds = %15, %18
  %25 = phi i8 [ %17, %15 ], [ %23, %18 ]
  %26 = tail call nonnull align 8 dereferenceable(16) %"class.std::basic_istream"* @_ZNSi7getlineEPclc(%"class.std::basic_istream"* nonnull align 8 dereferenceable(16) @_ZSt3cin, i8* getelementptr inbounds ([500 x i8], [500 x i8]* @word, i64 0, i64 0), i64 500, i8 signext %25)
  %27 = tail call i64 @strlen(i8* noundef nonnull dereferenceable(1) getelementptr inbounds ([500 x i8], [500 x i8]* @word, i64 0, i64 0)) #10
  %28 = trunc i64 %27 to i32
  store i32 %28, i32* @len, align 4, !tbaa !16
  %29 = icmp slt i32 %28, 2
  br i1 %29, label %35, label %30

30:                                               ; preds = %24, %30
  %31 = phi i32 [ %32, %30 ], [ 2, %24 ]
  tail call void @_Z6outputi(i32 %31)
  %32 = add nuw nsw i32 %31, 1
  %33 = load i32, i32* @len, align 4, !tbaa !16
  %34 = icmp slt i32 %31, %33
  br i1 %34, label %30, label %35, !llvm.loop !18

35:                                               ; preds = %30, %24
  ret i32 0
}

; Function Attrs: argmemonly mustprogress nofree nounwind readonly willreturn
declare i64 @strlen(i8* nocapture) local_unnamed_addr #4

; Function Attrs: mustprogress sspstrong uwtable
define dso_local void @_Z6outputi(i32 %0) local_unnamed_addr #5 {
  %2 = alloca i8, align 1
  %3 = load i32, i32* @len, align 4, !tbaa !16
  %4 = icmp slt i32 %3, %0
  br i1 %4, label %74, label %5

5:                                                ; preds = %1
  %6 = icmp sgt i32 %0, 0
  br label %7

7:                                                ; preds = %5, %68
  %8 = phi i32 [ %3, %5 ], [ %69, %68 ]
  %9 = phi i64 [ 0, %5 ], [ %73, %68 ]
  %10 = phi i32 [ 0, %5 ], [ %70, %68 ]
  %11 = shl nuw nsw i32 %10, 1
  %12 = add nsw i32 %11, %0
  br label %13

13:                                               ; preds = %13, %7
  %14 = phi i64 [ %26, %13 ], [ %9, %7 ]
  %15 = phi i32 [ %27, %13 ], [ %10, %7 ]
  %16 = getelementptr inbounds [500 x i8], [500 x i8]* @word, i64 0, i64 %14
  %17 = load i8, i8* %16, align 1, !tbaa !15
  %18 = xor i32 %15, -1
  %19 = add i32 %12, %18
  %20 = sext i32 %19 to i64
  %21 = getelementptr inbounds [500 x i8], [500 x i8]* @word, i64 0, i64 %20
  %22 = load i8, i8* %21, align 1, !tbaa !15
  %23 = icmp eq i8 %17, %22
  %24 = icmp slt i64 %14, %20
  %25 = select i1 %23, i1 %24, i1 false
  %26 = add nuw nsw i64 %14, 1
  %27 = add nuw nsw i32 %15, 1
  br i1 %25, label %13, label %28, !llvm.loop !20

28:                                               ; preds = %13
  br i1 %24, label %68, label %29

29:                                               ; preds = %28
  %30 = add nsw i32 %10, %0
  br i1 %6, label %31, label %39

31:                                               ; preds = %29, %31
  %32 = phi i64 [ %36, %31 ], [ %9, %29 ]
  %33 = getelementptr inbounds [500 x i8], [500 x i8]* @word, i64 0, i64 %32
  %34 = load i8, i8* %33, align 1, !tbaa !15
  call void @llvm.lifetime.start.p0i8(i64 1, i8* nonnull %2)
  store i8 %34, i8* %2, align 1, !tbaa !15
  %35 = call nonnull align 8 dereferenceable(8) %"class.std::basic_ostream"* @_ZSt16__ostream_insertIcSt11char_traitsIcEERSt13basic_ostreamIT_T0_ES6_PKS3_l(%"class.std::basic_ostream"* nonnull align 8 dereferenceable(8) @_ZSt4cout, i8* nonnull %2, i64 1)
  call void @llvm.lifetime.end.p0i8(i64 1, i8* nonnull %2)
  %36 = add nuw nsw i64 %32, 1
  %37 = trunc i64 %36 to i32
  %38 = icmp sgt i32 %30, %37
  br i1 %38, label %31, label %39, !llvm.loop !21

39:                                               ; preds = %31, %29
  %40 = load i8*, i8** bitcast (%"class.std::basic_ostream"* @_ZSt4cout to i8**), align 8, !tbaa !5
  %41 = getelementptr i8, i8* %40, i64 -24
  %42 = bitcast i8* %41 to i64*
  %43 = load i64, i64* %42, align 8
  %44 = add nsw i64 %43, 240
  %45 = getelementptr inbounds i8, i8* bitcast (%"class.std::basic_ostream"* @_ZSt4cout to i8*), i64 %44
  %46 = bitcast i8* %45 to %"class.std::ctype"**
  %47 = load %"class.std::ctype"*, %"class.std::ctype"** %46, align 8, !tbaa !8
  %48 = icmp eq %"class.std::ctype"* %47, null
  br i1 %48, label %49, label %50

49:                                               ; preds = %39
  call void @_ZSt16__throw_bad_castv() #9
  unreachable

50:                                               ; preds = %39
  %51 = getelementptr inbounds %"class.std::ctype", %"class.std::ctype"* %47, i64 0, i32 8
  %52 = load i8, i8* %51, align 8, !tbaa !13
  %53 = icmp eq i8 %52, 0
  br i1 %53, label %57, label %54

54:                                               ; preds = %50
  %55 = getelementptr inbounds %"class.std::ctype", %"class.std::ctype"* %47, i64 0, i32 9, i64 10
  %56 = load i8, i8* %55, align 1, !tbaa !15
  br label %63

57:                                               ; preds = %50
  call void @_ZNKSt5ctypeIcE13_M_widen_initEv(%"class.std::ctype"* nonnull align 8 dereferenceable(570) %47)
  %58 = bitcast %"class.std::ctype"* %47 to i8 (%"class.std::ctype"*, i8)***
  %59 = load i8 (%"class.std::ctype"*, i8)**, i8 (%"class.std::ctype"*, i8)*** %58, align 8, !tbaa !5
  %60 = getelementptr inbounds i8 (%"class.std::ctype"*, i8)*, i8 (%"class.std::ctype"*, i8)** %59, i64 6
  %61 = load i8 (%"class.std::ctype"*, i8)*, i8 (%"class.std::ctype"*, i8)** %60, align 8
  %62 = call signext i8 %61(%"class.std::ctype"* nonnull align 8 dereferenceable(570) %47, i8 signext 10)
  br label %63

63:                                               ; preds = %54, %57
  %64 = phi i8 [ %56, %54 ], [ %62, %57 ]
  %65 = call nonnull align 8 dereferenceable(8) %"class.std::basic_ostream"* @_ZNSo3putEc(%"class.std::basic_ostream"* nonnull align 8 dereferenceable(8) @_ZSt4cout, i8 signext %64)
  %66 = call nonnull align 8 dereferenceable(8) %"class.std::basic_ostream"* @_ZNSo5flushEv(%"class.std::basic_ostream"* nonnull align 8 dereferenceable(8) %65)
  %67 = load i32, i32* @len, align 4, !tbaa !16
  br label %68

68:                                               ; preds = %28, %63
  %69 = phi i32 [ %8, %28 ], [ %67, %63 ]
  %70 = add nuw nsw i32 %10, 1
  %71 = sub nsw i32 %69, %0
  %72 = icmp slt i32 %10, %71
  %73 = add nuw nsw i64 %9, 1
  br i1 %72, label %7, label %74, !llvm.loop !22

74:                                               ; preds = %68, %1
  ret void
}

declare nonnull align 8 dereferenceable(16) %"class.std::basic_istream"* @_ZNSi7getlineEPclc(%"class.std::basic_istream"* nonnull align 8 dereferenceable(16), i8*, i64, i8 signext) local_unnamed_addr #0

; Function Attrs: noreturn
declare void @_ZSt16__throw_bad_castv() local_unnamed_addr #6

declare void @_ZNKSt5ctypeIcE13_M_widen_initEv(%"class.std::ctype"* nonnull align 8 dereferenceable(570)) local_unnamed_addr #0

declare nonnull align 8 dereferenceable(8) %"class.std::basic_ostream"* @_ZSt16__ostream_insertIcSt11char_traitsIcEERSt13basic_ostreamIT_T0_ES6_PKS3_l(%"class.std::basic_ostream"* nonnull align 8 dereferenceable(8), i8*, i64) local_unnamed_addr #0

declare nonnull align 8 dereferenceable(8) %"class.std::basic_ostream"* @_ZNSo3putEc(%"class.std::basic_ostream"* nonnull align 8 dereferenceable(8), i8 signext) local_unnamed_addr #0

declare nonnull align 8 dereferenceable(8) %"class.std::basic_ostream"* @_ZNSo5flushEv(%"class.std::basic_ostream"* nonnull align 8 dereferenceable(8)) local_unnamed_addr #0

; Function Attrs: sspstrong uwtable
define internal void @_GLOBAL__sub_I_402.cpp() #7 section ".text.startup" {
  tail call void @_ZNSt8ios_base4InitC1Ev(%"class.std::ios_base::Init"* nonnull align 1 dereferenceable(1) @_ZStL8__ioinit)
  %1 = tail call i32 @__cxa_atexit(void (i8*)* bitcast (void (%"class.std::ios_base::Init"*)* @_ZNSt8ios_base4InitD1Ev to void (i8*)*), i8* getelementptr inbounds (%"class.std::ios_base::Init", %"class.std::ios_base::Init"* @_ZStL8__ioinit, i64 0, i32 0), i8* nonnull @__dso_handle) #11
  ret void
}

; Function Attrs: argmemonly nofree nosync nounwind willreturn
declare void @llvm.lifetime.start.p0i8(i64 immarg, i8* nocapture) #8

; Function Attrs: argmemonly nofree nosync nounwind willreturn
declare void @llvm.lifetime.end.p0i8(i64 immarg, i8* nocapture) #8


!llvm.module.flags = !{!0, !1, !2, !3}
!llvm.ident = !{!4}

!0 = !{i32 1, !"wchar_size", i32 4}
!1 = !{i32 7, !"PIC Level", i32 2}
!2 = !{i32 7, !"PIE Level", i32 2}
!3 = !{i32 7, !"uwtable", i32 1}
!4 = !{!"clang version 13.0.0"}
!5 = !{!6, !6, i64 0}
!6 = !{!"vtable pointer", !7, i64 0}
!7 = !{!"Simple C++ TBAA"}
!8 = !{!9, !10, i64 240}
!9 = !{!"_ZTSSt9basic_iosIcSt11char_traitsIcEE", !10, i64 216, !11, i64 224, !12, i64 225, !10, i64 232, !10, i64 240, !10, i64 248, !10, i64 256}
!10 = !{!"any pointer", !11, i64 0}
!11 = !{!"omnipotent char", !7, i64 0}
!12 = !{!"bool", !11, i64 0}
!13 = !{!14, !11, i64 56}
!14 = !{!"_ZTSSt5ctypeIcE", !10, i64 16, !12, i64 24, !10, i64 32, !10, i64 40, !10, i64 48, !11, i64 56, !11, i64 57, !11, i64 313, !11, i64 569}
!15 = !{!11, !11, i64 0}
!16 = !{!17, !17, i64 0}
!17 = !{!"int", !11, i64 0}
!18 = distinct !{!18, !19}
!19 = !{!"llvm.loop.mustprogress"}
!20 = distinct !{!20, !19}
!21 = distinct !{!21, !19}
!22 = distinct !{!22, !19}
